; Function Attrs: mustprogress nounwind willreturn uwtable
define hidden void @ssl_read_buffer_discard(ptr noundef readonly captures(none) %0) local_unnamed_addr #2 {
  %2 = getelementptr inbounds nuw i8, ptr %0, i64 80
  %3 = load ptr, ptr %2, align 8, !tbaa !6
  %4 = getelementptr inbounds nuw i8, ptr %3, i64 98
  %5 = load i16, ptr %4, align 2, !tbaa !50
  %6 = icmp eq i16 %5, 0
  br i1 %6, label %7, label %10

7:                                                ; preds = %1
  %8 = getelementptr inbounds nuw i8, ptr %3, i64 88
  %9 = load ptr, ptr %8, align 8, !tbaa !51
  tail call void @free(ptr noundef %9) #9
  tail call void @llvm.memset.p0.i64(ptr noundef nonnull align 8 dereferenceable(16) %8, i8 0, i64 16, i1 false)
  br label %10

10:                                               ; preds = %7, %1
  ret void
}